target datalayout = "e-m:e-p270:32:32-p271:32:32-p272:64:64-i64:64-i128:128-f80:128-n8:16:32:64-S128"
target triple = "x86_64-pc-linux-gnu"

%struct.QEMUIOVector = type { ptr, i32, %union.anon }
%union.anon = type { %struct.anon }
%struct.anon = type { i32, %struct.iovec }
%struct.iovec = type { ptr, i64 }
%struct.anon.0 = type { [12 x i8], i64 }

@qemuio_misalign = dso_local global i8 0, align 1
@optind = external global i32, align 4
@.str.30 = private unnamed_addr constant [78 x i8] c"Parsing error: non-numeric argument, or extraneous/unrecognized suffix -- %s\0A\00", align 1
@.str.31 = private unnamed_addr constant [41 x i8] c"Parsing error: argument too large -- %s\0A\00", align 1
@.str.32 = private unnamed_addr constant [19 x i8] c"Parsing error: %s\0A\00", align 1
@.str.133 = private unnamed_addr constant [2 x i8] c"p\00", align 1
@.str.134 = private unnamed_addr constant [24 x i8] c"zone append failed: %s\0A\00", align 1
@.str.135 = private unnamed_addr constant [44 x i8] c"After zap done, the append sector is 0x%lx\0A\00", align 1

; Function Attrs: nounwind sspstrong uwtable
define internal void @qemu_io_free(ptr noundef %0, ptr noundef %1, i64 noundef %2, i1 noundef zeroext %3) #0 {
  %5 = alloca ptr, align 8
  %6 = alloca ptr, align 8
  %7 = alloca i64, align 8
  %8 = alloca i8, align 1
  store ptr %0, ptr %5, align 8
  store ptr %1, ptr %6, align 8
  store i64 %2, ptr %7, align 8
  %9 = zext i1 %3 to i8
  store i8 %9, ptr %8, align 1
  %10 = load i8, ptr @qemuio_misalign, align 1, !range !11, !noundef !12
  %11 = trunc i8 %10 to i1
  br i1 %11, label %12, label %17

12:                                               ; preds = %4
  %13 = load ptr, ptr %6, align 8
  %14 = getelementptr inbounds i8, ptr %13, i64 -16
  store ptr %14, ptr %6, align 8
  %15 = load i64, ptr %7, align 8
  %16 = add i64 %15, 16
  store i64 %16, ptr %7, align 8
  br label %17

17:                                               ; preds = %12, %4
  %18 = load i8, ptr %8, align 1, !range !11, !noundef !12
  %19 = trunc i8 %18 to i1
  br i1 %19, label %20, label %24

20:                                               ; preds = %17
  %21 = load ptr, ptr %5, align 8
  %22 = load ptr, ptr %6, align 8
  %23 = load i64, ptr %7, align 8
  call void @blk_unregister_buf(ptr noundef %21, ptr noundef %22, i64 noundef %23)
  br label %24

24:                                               ; preds = %20, %17
  %25 = load ptr, ptr %6, align 8
  call void @qemu_vfree(ptr noundef %25)
  ret void
}

; Function Attrs: inlinehint nounwind sspstrong uwtable
define internal i64 @tosector(i64 noundef %0) #9 {
  %2 = alloca i64, align 8
  store i64 %0, ptr %2, align 8
  %3 = load i64, ptr %2, align 8
  %4 = ashr i64 %3, 9
  ret i64 %4
}

; Function Attrs: nounwind sspstrong uwtable
define internal i32 @do_aio_zone_append(ptr noundef %0, ptr noundef %1, ptr noundef %2, i32 noundef %3, ptr noundef %4) #0 {
  %6 = alloca ptr, align 8
  %7 = alloca ptr, align 8
  %8 = alloca ptr, align 8
  %9 = alloca i32, align 4
  %10 = alloca ptr, align 8
  %11 = alloca i32, align 4
  store ptr %0, ptr %6, align 8
  store ptr %1, ptr %7, align 8
  store ptr %2, ptr %8, align 8
  store i32 %3, ptr %9, align 4
  store ptr %4, ptr %10, align 8
  call void @llvm.lifetime.start.p0(i64 4, ptr %11) #18
  store i32 2147483647, ptr %11, align 4
  %12 = load ptr, ptr %6, align 8
  %13 = load ptr, ptr %8, align 8
  %14 = load ptr, ptr %7, align 8
  %15 = load i32, ptr %9, align 4
  %16 = call ptr @blk_aio_zone_append(ptr noundef %12, ptr noundef %13, ptr noundef %14, i32 noundef %15, ptr noundef @aio_rw_done, ptr noundef %11)
  br label %17

17:                                               ; preds = %20, %5
  %18 = load i32, ptr %11, align 4
  %19 = icmp eq i32 %18, 2147483647
  br i1 %19, label %20, label %21

20:                                               ; preds = %17
  call void @main_loop_wait(i32 noundef 0)
  br label %17, !llvm.loop !27

21:                                               ; preds = %17
  %22 = load ptr, ptr %7, align 8
  %23 = getelementptr inbounds nuw %struct.QEMUIOVector, ptr %22, i32 0, i32 2
  %24 = getelementptr inbounds nuw %struct.anon.0, ptr %23, i32 0, i32 1
  %25 = load i64, ptr %24, align 8
  %26 = trunc i64 %25 to i32
  %27 = load ptr, ptr %10, align 8
  store i32 %26, ptr %27, align 4
  %28 = load i32, ptr %11, align 4
  %29 = icmp slt i32 %28, 0
  br i1 %29, label %30, label %32

30:                                               ; preds = %21
  %31 = load i32, ptr %11, align 4
  br label %33

32:                                               ; preds = %21
  br label %33

33:                                               ; preds = %32, %30
  %34 = phi i32 [ %31, %30 ], [ 1, %32 ]
  call void @llvm.lifetime.end.p0(i64 4, ptr %11) #18
  ret i32 %34
}

; Function Attrs: nounwind sspstrong uwtable
define internal void @print_cvtnum_err(i64 noundef %0, ptr noundef %1) #0 {
  %3 = alloca i64, align 8
  %4 = alloca ptr, align 8
  store i64 %0, ptr %3, align 8
  store ptr %1, ptr %4, align 8
  %5 = load i64, ptr %3, align 8
  switch i64 %5, label %12 [
    i64 -22, label %6
    i64 -34, label %9
  ]

6:                                                ; preds = %2
  %7 = load ptr, ptr %4, align 8
  %8 = call i32 (i32, ptr, ...) @__printf_chk(i32 noundef 1, ptr noundef @.str.30, ptr noundef %7)
  br label %15

9:                                                ; preds = %2
  %10 = load ptr, ptr %4, align 8
  %11 = call i32 (i32, ptr, ...) @__printf_chk(i32 noundef 1, ptr noundef @.str.31, ptr noundef %10)
  br label %15

12:                                               ; preds = %2
  %13 = load ptr, ptr %4, align 8
  %14 = call i32 (i32, ptr, ...) @__printf_chk(i32 noundef 1, ptr noundef @.str.32, ptr noundef %13)
  br label %15

15:                                               ; preds = %12, %9, %6
  ret void
}

; Function Attrs: nounwind sspstrong uwtable
define internal i64 @cvtnum(ptr noundef %0) #0 {
  %2 = alloca i64, align 8
  %3 = alloca ptr, align 8
  %4 = alloca i32, align 4
  %5 = alloca i64, align 8
  %6 = alloca i32, align 4
  store ptr %0, ptr %3, align 8
  call void @llvm.lifetime.start.p0(i64 4, ptr %4) #18
  store i32 0, ptr %4, align 4, !annotation !4
  call void @llvm.lifetime.start.p0(i64 8, ptr %5) #18
  store i64 0, ptr %5, align 8, !annotation !4
  %7 = load ptr, ptr %3, align 8
  %8 = call i32 @qemu_strtosz(ptr noundef %7, ptr noundef null, ptr noundef %5)
  store i32 %8, ptr %4, align 4
  %9 = load i32, ptr %4, align 4
  %10 = icmp slt i32 %9, 0
  br i1 %10, label %11, label %14

11:                                               ; preds = %1
  %12 = load i32, ptr %4, align 4
  %13 = sext i32 %12 to i64
  store i64 %13, ptr %2, align 8
  store i32 1, ptr %6, align 4
  br label %20

14:                                               ; preds = %1
  %15 = load i64, ptr %5, align 8
  %16 = icmp ugt i64 %15, 9223372036854775807
  br i1 %16, label %17, label %18

17:                                               ; preds = %14
  store i64 -34, ptr %2, align 8
  store i32 1, ptr %6, align 4
  br label %20

18:                                               ; preds = %14
  %19 = load i64, ptr %5, align 8
  store i64 %19, ptr %2, align 8
  store i32 1, ptr %6, align 4
  br label %20

20:                                               ; preds = %18, %17, %11
  call void @llvm.lifetime.end.p0(i64 8, ptr %5) #18
  call void @llvm.lifetime.end.p0(i64 4, ptr %4) #18
  %21 = load i64, ptr %2, align 8
  ret i64 %21
}

; Function Attrs: nounwind sspstrong uwtable
define internal i32 @zone_append_f(ptr noundef %0, i32 noundef %1, ptr noundef %2) #0 {
  %4 = alloca i32, align 4
  %5 = alloca ptr, align 8
  %6 = alloca i32, align 4
  %7 = alloca ptr, align 8
  %8 = alloca i32, align 4
  %9 = alloca i8, align 1
  %10 = alloca i32, align 4
  %11 = alloca i32, align 4
  %12 = alloca i64, align 8
  %13 = alloca ptr, align 8
  %14 = alloca i32, align 4
  %15 = alloca i32, align 4
  %16 = alloca i32, align 4
  %17 = alloca %struct.QEMUIOVector, align 8
  %18 = alloca i32, align 4
  store ptr %0, ptr %5, align 8
  store i32 %1, ptr %6, align 4
  store ptr %2, ptr %7, align 8
  call void @llvm.lifetime.start.p0(i64 4, ptr %8) #18
  store i32 0, ptr %8, align 4, !annotation !4
  call void @llvm.lifetime.start.p0(i64 1, ptr %9) #18
  store i8 0, ptr %9, align 1
  call void @llvm.lifetime.start.p0(i64 4, ptr %10) #18
  store i32 0, ptr %10, align 4
  call void @llvm.lifetime.start.p0(i64 4, ptr %11) #18
  store i32 0, ptr %11, align 4
  call void @llvm.lifetime.start.p0(i64 8, ptr %12) #18
  store i64 0, ptr %12, align 8, !annotation !4
  call void @llvm.lifetime.start.p0(i64 8, ptr %13) #18
  store ptr null, ptr %13, align 8, !annotation !4
  call void @llvm.lifetime.start.p0(i64 4, ptr %14) #18
  store i32 0, ptr %14, align 4, !annotation !4
  call void @llvm.lifetime.start.p0(i64 4, ptr %15) #18
  store i32 0, ptr %15, align 4, !annotation !4
  call void @llvm.lifetime.start.p0(i64 4, ptr %16) #18
  store i32 205, ptr %16, align 4
  call void @llvm.lifetime.start.p0(i64 40, ptr %17) #18
  call void @llvm.memset.p0.i64(ptr align 8 %17, i8 0, i64 40, i1 false), !annotation !4
  %19 = load i32, ptr @optind, align 4
  %20 = load i32, ptr %6, align 4
  %21 = sub i32 %20, 3
  %22 = icmp sgt i32 %19, %21
  br i1 %22, label %23, label %24

23:                                               ; preds = %3
  store i32 -22, ptr %4, align 4
  store i32 1, ptr %18, align 4
  br label %97

24:                                               ; preds = %3
  %25 = load i32, ptr %6, align 4
  %26 = load ptr, ptr %7, align 8
  %27 = call i32 @getopt(i32 noundef %25, ptr noundef %26, ptr noundef @.str.133) #18
  store i32 %27, ptr %14, align 4
  %28 = icmp ne i32 %27, -1
  br i1 %28, label %29, label %30

29:                                               ; preds = %24
  store i8 1, ptr %9, align 1
  br label %30

30:                                               ; preds = %29, %24
  %31 = load ptr, ptr %7, align 8
  %32 = load i32, ptr @optind, align 4
  %33 = sext i32 %32 to i64
  %34 = getelementptr inbounds ptr, ptr %31, i64 %33
  %35 = load ptr, ptr %34, align 8
  %36 = call i64 @cvtnum(ptr noundef %35)
  store i64 %36, ptr %12, align 8
  %37 = load i64, ptr %12, align 8
  %38 = icmp slt i64 %37, 0
  br i1 %38, label %39, label %48

39:                                               ; preds = %30
  %40 = load i64, ptr %12, align 8
  %41 = load ptr, ptr %7, align 8
  %42 = load i32, ptr @optind, align 4
  %43 = sext i32 %42 to i64
  %44 = getelementptr inbounds ptr, ptr %41, i64 %43
  %45 = load ptr, ptr %44, align 8
  call void @print_cvtnum_err(i64 noundef %40, ptr noundef %45)
  %46 = load i64, ptr %12, align 8
  %47 = trunc i64 %46 to i32
  store i32 %47, ptr %4, align 4
  store i32 1, ptr %18, align 4
  br label %97

48:                                               ; preds = %30
  %49 = load i32, ptr @optind, align 4
  %50 = add i32 %49, 1
  store i32 %50, ptr @optind, align 4
  %51 = load i32, ptr %6, align 4
  %52 = load i32, ptr @optind, align 4
  %53 = sub i32 %51, %52
  store i32 %53, ptr %15, align 4
  %54 = load ptr, ptr %5, align 8
  %55 = load ptr, ptr %7, align 8
  %56 = load i32, ptr @optind, align 4
  %57 = sext i32 %56 to i64
  %58 = getelementptr inbounds ptr, ptr %55, i64 %57
  %59 = load i32, ptr %15, align 4
  %60 = load i32, ptr %16, align 4
  %61 = load i32, ptr %10, align 4
  %62 = and i32 %61, 8
  %63 = icmp ne i32 %62, 0
  %64 = call ptr @create_iovec(ptr noundef %54, ptr noundef %17, ptr noundef %58, i32 noundef %59, i32 noundef %60, i1 noundef zeroext %63)
  store ptr %64, ptr %13, align 8
  %65 = load ptr, ptr %13, align 8
  %66 = icmp eq ptr %65, null
  br i1 %66, label %67, label %68

67:                                               ; preds = %48
  store i32 -22, ptr %4, align 4
  store i32 1, ptr %18, align 4
  br label %97

68:                                               ; preds = %48
  %69 = load ptr, ptr %5, align 8
  %70 = load i32, ptr %10, align 4
  %71 = call i32 @do_aio_zone_append(ptr noundef %69, ptr noundef %17, ptr noundef %12, i32 noundef %70, ptr noundef %11)
  store i32 %71, ptr %8, align 4
  %72 = load i32, ptr %8, align 4
  %73 = icmp slt i32 %72, 0
  br i1 %73, label %74, label %79

74:                                               ; preds = %68
  %75 = load i32, ptr %8, align 4
  %76 = sub i32 0, %75
  %77 = call ptr @strerror(i32 noundef %76) #18
  %78 = call i32 (i32, ptr, ...) @__printf_chk(i32 noundef 1, ptr noundef @.str.134, ptr noundef %77)
  br label %87

79:                                               ; preds = %68
  %80 = load i8, ptr %9, align 1, !range !11, !noundef !12
  %81 = trunc i8 %80 to i1
  br i1 %81, label %82, label %86

82:                                               ; preds = %79
  %83 = load i64, ptr %12, align 8
  %84 = call i64 @tosector(i64 noundef %83)
  %85 = call i32 (i32, ptr, ...) @__printf_chk(i32 noundef 1, ptr noundef @.str.135, i64 noundef %84)
  br label %86

86:                                               ; preds = %82, %79
  br label %87

87:                                               ; preds = %86, %74
  %88 = load ptr, ptr %5, align 8
  %89 = load ptr, ptr %13, align 8
  %90 = getelementptr inbounds nuw %struct.QEMUIOVector, ptr %17, i32 0, i32 2
  %91 = getelementptr inbounds nuw %struct.anon.0, ptr %90, i32 0, i32 1
  %92 = load i64, ptr %91, align 8
  %93 = load i32, ptr %10, align 4
  %94 = and i32 %93, 8
  %95 = icmp ne i32 %94, 0
  call void @qemu_io_free(ptr noundef %88, ptr noundef %89, i64 noundef %92, i1 noundef zeroext %95)
  call void @qemu_iovec_destroy(ptr noundef %17)
  %96 = load i32, ptr %8, align 4
  store i32 %96, ptr %4, align 4
  store i32 1, ptr %18, align 4
  br label %97

97:                                               ; preds = %87, %67, %39, %23
  call void @llvm.lifetime.end.p0(i64 40, ptr %17) #18
  call void @llvm.lifetime.end.p0(i64 4, ptr %16) #18
  call void @llvm.lifetime.end.p0(i64 4, ptr %15) #18
  call void @llvm.lifetime.end.p0(i64 4, ptr %14) #18
  call void @llvm.lifetime.end.p0(i64 8, ptr %13) #18
  call void @llvm.lifetime.end.p0(i64 8, ptr %12) #18
  call void @llvm.lifetime.end.p0(i64 4, ptr %11) #18
  call void @llvm.lifetime.end.p0(i64 4, ptr %10) #18
  call void @llvm.lifetime.end.p0(i64 1, ptr %9) #18
  call void @llvm.lifetime.end.p0(i64 4, ptr %8) #18
  %98 = load i32, ptr %4, align 4
  ret i32 %98
}