; Function Attrs: nounwind sspstrong uwtable
define internal i32 @zone_append_f(ptr noundef %0, i32 noundef %1, ptr noundef %2) #0 {
  %4 = alloca i32, align 4
  %5 = alloca i64, align 8
  %6 = alloca i64, align 8
  %7 = alloca %struct.QEMUIOVector, align 8
  call void @llvm.lifetime.start.p0(i64 8, ptr nonnull %6) #26
  call void @llvm.lifetime.start.p0(i64 40, ptr nonnull %7) #26
  %8 = load i32, ptr @optind, align 4
  %9 = add i32 %1, -3
  %10 = icmp sgt i32 %8, %9
  br i1 %10, label %57, label %11

11:                                               ; preds = %3
  call void @llvm.memset.p0.i64(ptr noundef nonnull align 8 dereferenceable(40) %7, i8 0, i64 40, i1 false), !annotation !8
  %12 = tail call i32 @getopt(i32 noundef %1, ptr noundef %2, ptr noundef nonnull @.str.133) #26
  %.not.not = icmp eq i32 %12, -1
  %13 = load i32, ptr @optind, align 4
  %14 = sext i32 %13 to i64
  %15 = getelementptr inbounds ptr, ptr %2, i64 %14
  %16 = load ptr, ptr %15, align 8
  call void @llvm.lifetime.start.p0(i64 8, ptr nonnull %5) #26
  store i64 0, ptr %5, align 8, !annotation !8
  %17 = call i32 @qemu_strtosz(ptr noundef %16, ptr noundef null, ptr noundef nonnull %5) #26
  %18 = icmp slt i32 %17, 0
  %19 = sext i32 %17 to i64
  %20 = load i64, ptr %5, align 8
  %21 = icmp slt i64 %20, 0
  %..i = select i1 %21, i64 -34, i64 %20
  %.0.i = select i1 %18, i64 %19, i64 %..i
  call void @llvm.lifetime.end.p0(i64 8, ptr nonnull %5) #26
  store i64 %.0.i, ptr %6, align 8
  %22 = icmp slt i64 %.0.i, 0
  %23 = load i32, ptr @optind, align 4
  br i1 %22, label %24, label %30

24:                                               ; preds = %11
  %25 = sext i32 %23 to i64
  %26 = getelementptr inbounds ptr, ptr %2, i64 %25
  %27 = load ptr, ptr %26, align 8
  %switch.selectcmp.i = icmp eq i64 %.0.i, -34
  %switch.select.i = select i1 %switch.selectcmp.i, ptr @.str.31, ptr @.str.32
  %switch.selectcmp3.i = icmp eq i64 %.0.i, -22
  %switch.select4.i = select i1 %switch.selectcmp3.i, ptr @.str.30, ptr %switch.select.i
  %28 = call i32 (i32, ptr, ...) @__printf_chk(i32 noundef 1, ptr noundef nonnull %switch.select4.i, ptr noundef %27) #26
  %29 = trunc i64 %.0.i to i32
  br label %57

30:                                               ; preds = %11
  %31 = add i32 %23, 1
  store i32 %31, ptr @optind, align 4
  %32 = sub i32 %1, %31
  %33 = sext i32 %31 to i64
  %34 = getelementptr inbounds ptr, ptr %2, i64 %33
  %35 = call fastcc ptr @create_iovec(ptr noundef %0, ptr noundef nonnull %7, ptr noundef %34, i32 noundef %32, i32 noundef 205, i1 noundef zeroext false)
  %36 = icmp eq ptr %35, null
  br i1 %36, label %57, label %37

37:                                               ; preds = %30
  call void @llvm.lifetime.start.p0(i64 4, ptr nonnull %4) #26
  store i32 2147483647, ptr %4, align 4
  %38 = call ptr @blk_aio_zone_append(ptr noundef %0, ptr noundef nonnull %6, ptr noundef nonnull %7, i32 noundef 0, ptr noundef nonnull @aio_rw_done, ptr noundef nonnull %4) #26
  %39 = load i32, ptr %4, align 4
  %40 = icmp eq i32 %39, 2147483647
  br i1 %40, label %.lr.ph.i, label %do_aio_zone_append.exit

.lr.ph.i:                                         ; preds = %37, %.lr.ph.i
  call void @main_loop_wait(i32 noundef 0) #26
  %41 = load i32, ptr %4, align 4
  %42 = icmp eq i32 %41, 2147483647
  br i1 %42, label %.lr.ph.i, label %do_aio_zone_append.exit, !llvm.loop !27

do_aio_zone_append.exit:                          ; preds = %.lr.ph.i, %37
  %.lcssa.i = phi i32 [ %39, %37 ], [ %41, %.lr.ph.i ]
  %43 = icmp slt i32 %.lcssa.i, 0
  %44 = select i1 %43, i32 %.lcssa.i, i32 1
  call void @llvm.lifetime.end.p0(i64 4, ptr nonnull %4) #26
  br i1 %43, label %45, label %49

45:                                               ; preds = %do_aio_zone_append.exit
  %46 = sub i32 0, %.lcssa.i
  %47 = call ptr @strerror(i32 noundef %46) #26
  %48 = call i32 (i32, ptr, ...) @__printf_chk(i32 noundef 1, ptr noundef nonnull @.str.134, ptr noundef %47) #26
  br label %54

49:                                               ; preds = %do_aio_zone_append.exit
  br i1 %.not.not, label %54, label %50

50:                                               ; preds = %49
  %51 = load i64, ptr %6, align 8
  %52 = ashr i64 %51, 9
  %53 = call i32 (i32, ptr, ...) @__printf_chk(i32 noundef 1, ptr noundef nonnull @.str.135, i64 noundef %52) #26
  br label %54

54:                                               ; preds = %49, %50, %45
  %55 = load i8, ptr @qemuio_misalign, align 1, !range !11, !noundef !12
  %56 = trunc nuw i8 %55 to i1
  %.0.idx.i = select i1 %56, i64 -16, i64 0
  %.0.i25 = getelementptr inbounds i8, ptr %35, i64 %.0.idx.i
  call void @qemu_vfree(ptr noundef nonnull %.0.i25) #26
  call void @qemu_iovec_destroy(ptr noundef nonnull %7) #26
  br label %57

57:                                               ; preds = %30, %3, %54, %24
  %.0 = phi i32 [ %29, %24 ], [ %44, %54 ], [ -22, %3 ], [ -22, %30 ]
  call void @llvm.lifetime.end.p0(i64 40, ptr nonnull %7) #26
  call void @llvm.lifetime.end.p0(i64 8, ptr nonnull %6) #26
  ret i32 %.0
}